; ModuleID = '22/1059.c'
source_filename = "22/1059.c"
target datalayout = "e-m:e-p270:32:32-p271:32:32-p272:64:64-i64:64-f80:128-n8:16:32:64-S128"
target triple = "x86_64-pc-linux-gnu"

@.str = private unnamed_addr constant [5 x i8] c"%d%c\00", align 1
@.str.1 = private unnamed_addr constant [3 x i8] c"%d\00", align 1
@.str.2 = private unnamed_addr constant [3 x i8] c"No\00", align 1

; Function Attrs: noinline nounwind uwtable
define dso_local i32 @main() #0 {
  %1 = alloca i32, align 4
  %2 = alloca i32, align 4
  %3 = alloca [300 x i32], align 16
  %4 = alloca i32, align 4
  %5 = alloca i8, align 1
  store i32 0, i32* %1, align 4
  store i32 0, i32* %2, align 4
  store i32 0, i32* %4, align 4
  br label %6

6:                                                ; preds = %14, %0
  %7 = load i32, i32* %2, align 4
  %8 = add nsw i32 %7, 1
  store i32 %8, i32* %2, align 4
  %9 = sext i32 %7 to i64
  %10 = getelementptr inbounds [300 x i32], [300 x i32]* %3, i64 0, i64 %9
  %11 = call i32 (i8*, ...) @__isoc99_scanf(i8* getelementptr inbounds ([5 x i8], [5 x i8]* @.str, i64 0, i64 0), i32* %10, i8* %5)
  %12 = load i32, i32* %4, align 4
  %13 = add nsw i32 %12, 1
  store i32 %13, i32* %4, align 4
  br label %14

14:                                               ; preds = %6
  %15 = load i8, i8* %5, align 1
  %16 = sext i8 %15 to i32
  %17 = icmp ne i32 %16, 10
  br i1 %17, label %6, label %18

18:                                               ; preds = %14
  %19 = getelementptr inbounds [300 x i32], [300 x i32]* %3, i64 0, i64 0
  %20 = load i32, i32* %4, align 4
  %21 = call i32 @second(i32* %19, i32 %20)
  %22 = icmp ne i32 %21, -1
  br i1 %22, label %23, label %28

23:                                               ; preds = %18
  %24 = getelementptr inbounds [300 x i32], [300 x i32]* %3, i64 0, i64 0
  %25 = load i32, i32* %4, align 4
  %26 = call i32 @second(i32* %24, i32 %25)
  %27 = call i32 (i8*, ...) @printf(i8* getelementptr inbounds ([3 x i8], [3 x i8]* @.str.1, i64 0, i64 0), i32 %26)
  br label %30

28:                                               ; preds = %18
  %29 = call i32 (i8*, ...) @printf(i8* getelementptr inbounds ([3 x i8], [3 x i8]* @.str.2, i64 0, i64 0))
  br label %30

30:                                               ; preds = %28, %23
  ret i32 0
}

declare dso_local i32 @__isoc99_scanf(i8*, ...) #1

; Function Attrs: noinline nounwind uwtable
define dso_local i32 @second(i32* %0, i32 %1) #0 {
  %3 = alloca i32, align 4
  %4 = alloca i32*, align 8
  %5 = alloca i32, align 4
  %6 = alloca i32, align 4
  %7 = alloca i32, align 4
  %8 = alloca i32, align 4
  store i32* %0, i32** %4, align 8
  store i32 %1, i32* %5, align 4
  %9 = load i32*, i32** %4, align 8
  %10 = getelementptr inbounds i32, i32* %9, i64 0
  %11 = load i32, i32* %10, align 4
  store i32 %11, i32* %6, align 4
  store i32 1, i32* %7, align 4
  store i32 -1, i32* %8, align 4
  br label %12

12:                                               ; preds = %53, %2
  %13 = load i32, i32* %7, align 4
  %14 = load i32, i32* %5, align 4
  %15 = icmp slt i32 %13, %14
  br i1 %15, label %16, label %56

16:                                               ; preds = %12
  %17 = load i32*, i32** %4, align 8
  %18 = load i32, i32* %7, align 4
  %19 = sext i32 %18 to i64
  %20 = getelementptr inbounds i32, i32* %17, i64 %19
  %21 = load i32, i32* %20, align 4
  %22 = load i32, i32* %6, align 4
  %23 = icmp sgt i32 %21, %22
  br i1 %23, label %24, label %31

24:                                               ; preds = %16
  %25 = load i32, i32* %6, align 4
  store i32 %25, i32* %8, align 4
  %26 = load i32*, i32** %4, align 8
  %27 = load i32, i32* %7, align 4
  %28 = sext i32 %27 to i64
  %29 = getelementptr inbounds i32, i32* %26, i64 %28
  %30 = load i32, i32* %29, align 4
  store i32 %30, i32* %6, align 4
  br label %31

31:                                               ; preds = %24, %16
  %32 = load i32*, i32** %4, align 8
  %33 = load i32, i32* %7, align 4
  %34 = sext i32 %33 to i64
  %35 = getelementptr inbounds i32, i32* %32, i64 %34
  %36 = load i32, i32* %35, align 4
  %37 = load i32, i32* %6, align 4
  %38 = icmp slt i32 %36, %37
  br i1 %38, label %39, label %53

39:                                               ; preds = %31
  %40 = load i32*, i32** %4, align 8
  %41 = load i32, i32* %7, align 4
  %42 = sext i32 %41 to i64
  %43 = getelementptr inbounds i32, i32* %40, i64 %42
  %44 = load i32, i32* %43, align 4
  %45 = load i32, i32* %8, align 4
  %46 = icmp sgt i32 %44, %45
  br i1 %46, label %47, label %53

47:                                               ; preds = %39
  %48 = load i32*, i32** %4, align 8
  %49 = load i32, i32* %7, align 4
  %50 = sext i32 %49 to i64
  %51 = getelementptr inbounds i32, i32* %48, i64 %50
  %52 = load i32, i32* %51, align 4
  store i32 %52, i32* %8, align 4
  br label %53

53:                                               ; preds = %47, %39, %31
  %54 = load i32, i32* %7, align 4
  %55 = add nsw i32 %54, 1
  store i32 %55, i32* %7, align 4
  br label %12

56:                                               ; preds = %12
  %57 = load i32, i32* %8, align 4
  %58 = icmp ne i32 %57, -1
  br i1 %58, label %59, label %61

59:                                               ; preds = %56
  %60 = load i32, i32* %8, align 4
  store i32 %60, i32* %3, align 4
  br label %62

61:                                               ; preds = %56
  store i32 -1, i32* %3, align 4
  br label %62

62:                                               ; preds = %61, %59
  %63 = load i32, i32* %3, align 4
  ret i32 %63
}

declare dso_local i32 @printf(i8*, ...) #1


!llvm.module.flags = !{!0}
!llvm.ident = !{!1}

!0 = !{i32 1, !"wchar_size", i32 4}
!1 = !{!"clang version 10.0.0-4ubuntu1 "}
